target datalayout = "e-m:e-p270:32:32-p271:32:32-p272:64:64-i64:64-i128:128-f80:128-n8:16:32:64-S128"
target triple = "x86_64-pc-linux-gnu"

%struct.UTransPosition = type { i32, i32, i32, i32 }

; Function Attrs: inlinehint mustprogress nounwind uwtable
define internal noundef signext i8 @_ZN6icu_77L15positionIsValidER14UTransPositioni(ptr noundef nonnull align 4 dereferenceable(16) %0, i32 noundef %1) #2 {
  %3 = alloca ptr, align 8
  %4 = alloca i32, align 4
  store ptr %0, ptr %3, align 8, !tbaa !49
  store i32 %1, ptr %4, align 4, !tbaa !14
  %5 = load ptr, ptr %3, align 8, !tbaa !49
  %6 = getelementptr inbounds nuw %struct.UTransPosition, ptr %5, i32 0, i32 0
  %7 = load i32, ptr %6, align 4, !tbaa !44
  %8 = icmp slt i32 %7, 0
  br i1 %8, label %39, label %9

9:                                                ; preds = %2
  %10 = load ptr, ptr %3, align 8, !tbaa !49
  %11 = getelementptr inbounds nuw %struct.UTransPosition, ptr %10, i32 0, i32 2
  %12 = load i32, ptr %11, align 4, !tbaa !47
  %13 = load ptr, ptr %3, align 8, !tbaa !49
  %14 = getelementptr inbounds nuw %struct.UTransPosition, ptr %13, i32 0, i32 0
  %15 = load i32, ptr %14, align 4, !tbaa !44
  %16 = icmp slt i32 %12, %15
  br i1 %16, label %39, label %17

17:                                               ; preds = %9
  %18 = load ptr, ptr %3, align 8, !tbaa !49
  %19 = getelementptr inbounds nuw %struct.UTransPosition, ptr %18, i32 0, i32 3
  %20 = load i32, ptr %19, align 4, !tbaa !48
  %21 = load ptr, ptr %3, align 8, !tbaa !49
  %22 = getelementptr inbounds nuw %struct.UTransPosition, ptr %21, i32 0, i32 2
  %23 = load i32, ptr %22, align 4, !tbaa !47
  %24 = icmp slt i32 %20, %23
  br i1 %24, label %39, label %25

25:                                               ; preds = %17
  %26 = load ptr, ptr %3, align 8, !tbaa !49
  %27 = getelementptr inbounds nuw %struct.UTransPosition, ptr %26, i32 0, i32 1
  %28 = load i32, ptr %27, align 4, !tbaa !46
  %29 = load ptr, ptr %3, align 8, !tbaa !49
  %30 = getelementptr inbounds nuw %struct.UTransPosition, ptr %29, i32 0, i32 3
  %31 = load i32, ptr %30, align 4, !tbaa !48
  %32 = icmp slt i32 %28, %31
  br i1 %32, label %39, label %33

33:                                               ; preds = %25
  %34 = load i32, ptr %4, align 4, !tbaa !14
  %35 = load ptr, ptr %3, align 8, !tbaa !49
  %36 = getelementptr inbounds nuw %struct.UTransPosition, ptr %35, i32 0, i32 1
  %37 = load i32, ptr %36, align 4, !tbaa !46
  %38 = icmp slt i32 %34, %37
  br label %39

39:                                               ; preds = %33, %25, %17, %9, %2
  %40 = phi i1 [ true, %25 ], [ true, %17 ], [ true, %9 ], [ true, %2 ], [ %38, %33 ]
  %41 = xor i1 %40, true
  %42 = zext i1 %41 to i8
  ret i8 %42
}

; Function Attrs: inlinehint mustprogress uwtable
define linkonce_odr noundef i32 @_ZNK6icu_7711Replaceable6lengthEv(ptr noundef nonnull align 8 dereferenceable(8) %0) #3 comdat align 2 {
  %2 = alloca ptr, align 8
  store ptr %0, ptr %2, align 8, !tbaa !42
  %3 = load ptr, ptr %2, align 8
  %4 = load ptr, ptr %3, align 8, !tbaa !29
  %5 = getelementptr inbounds ptr, ptr %4, i64 8
  %6 = load ptr, ptr %5, align 8
  %7 = call noundef i32 %6(ptr noundef nonnull align 8 dereferenceable(8) %3)
  ret i32 %7
}

; Function Attrs: mustprogress uwtable
define void @_ZNK6icu_7714Transliterator21finishTransliterationERNS_11ReplaceableER14UTransPosition(ptr noundef nonnull align 8 dereferenceable(84) %0, ptr noundef nonnull align 8 dereferenceable(8) %1, ptr noundef nonnull align 4 dereferenceable(16) %2) unnamed_addr #1 align 2 {
  %4 = alloca ptr, align 8
  %5 = alloca ptr, align 8
  %6 = alloca ptr, align 8
  store ptr %0, ptr %4, align 8, !tbaa !23
  store ptr %1, ptr %5, align 8, !tbaa !42
  store ptr %2, ptr %6, align 8, !tbaa !49
  %7 = load ptr, ptr %4, align 8
  %8 = load ptr, ptr %6, align 8, !tbaa !49
  %9 = load ptr, ptr %5, align 8, !tbaa !42
  %10 = call noundef i32 @_ZNK6icu_7711Replaceable6lengthEv(ptr noundef nonnull align 8 dereferenceable(8) %9)
  %11 = call noundef signext i8 @_ZN6icu_77L15positionIsValidER14UTransPositioni(ptr noundef nonnull align 4 dereferenceable(16) %8, i32 noundef %10)
  %12 = icmp ne i8 %11, 0
  br i1 %12, label %14, label %13

13:                                               ; preds = %3
  br label %20

14:                                               ; preds = %3
  %15 = load ptr, ptr %5, align 8, !tbaa !42
  %16 = load ptr, ptr %6, align 8, !tbaa !49
  %17 = load ptr, ptr %7, align 8, !tbaa !29
  %18 = getelementptr inbounds ptr, ptr %17, i64 12
  %19 = load ptr, ptr %18, align 8
  call void %19(ptr noundef nonnull align 8 dereferenceable(84) %7, ptr noundef nonnull align 8 dereferenceable(8) %15, ptr noundef nonnull align 4 dereferenceable(16) %16, i8 noundef signext 0, i8 noundef signext 1)
  br label %20

20:                                               ; preds = %14, %13
  ret void
}