; Function Attrs: mustprogress uwtable
define void @_ZNK6icu_7714Transliterator21finishTransliterationERNS_11ReplaceableER14UTransPosition(ptr noundef nonnull align 8 dereferenceable(84) %0, ptr noundef nonnull align 8 dereferenceable(8) %1, ptr noundef nonnull align 4 dereferenceable(16) %2) unnamed_addr #1 align 2 {
  %4 = load ptr, ptr %1, align 8, !tbaa !15
  %5 = getelementptr inbounds nuw i8, ptr %4, i64 64
  %6 = load ptr, ptr %5, align 8
  %7 = tail call noundef i32 %6(ptr noundef nonnull align 8 dereferenceable(8) %1)
  %8 = load i32, ptr %2, align 4, !tbaa !27
  %9 = icmp slt i32 %8, 0
  br i1 %9, label %_ZN6icu_77L15positionIsValidER14UTransPositioni.exit.thread, label %10

10:                                               ; preds = %3
  %11 = getelementptr inbounds nuw i8, ptr %2, i64 8
  %12 = load i32, ptr %11, align 4, !tbaa !30
  %13 = icmp slt i32 %12, %8
  br i1 %13, label %_ZN6icu_77L15positionIsValidER14UTransPositioni.exit.thread, label %14

14:                                               ; preds = %10
  %15 = getelementptr inbounds nuw i8, ptr %2, i64 12
  %16 = load i32, ptr %15, align 4, !tbaa !31
  %17 = icmp slt i32 %16, %12
  br i1 %17, label %_ZN6icu_77L15positionIsValidER14UTransPositioni.exit.thread, label %18

18:                                               ; preds = %14
  %19 = getelementptr inbounds nuw i8, ptr %2, i64 4
  %20 = load i32, ptr %19, align 4, !tbaa !29
  %21 = icmp slt i32 %20, %16
  %.not6 = icmp slt i32 %7, %20
  %or.cond = or i1 %21, %.not6
  br i1 %or.cond, label %_ZN6icu_77L15positionIsValidER14UTransPositioni.exit.thread, label %22

22:                                               ; preds = %18
  %23 = load ptr, ptr %0, align 8, !tbaa !15
  %24 = getelementptr inbounds nuw i8, ptr %23, i64 96
  %25 = load ptr, ptr %24, align 8
  tail call void %25(ptr noundef nonnull align 8 dereferenceable(84) %0, ptr noundef nonnull align 8 dereferenceable(8) %1, ptr noundef nonnull align 4 dereferenceable(16) %2, i8 noundef signext 0, i8 noundef signext 1)
  br label %_ZN6icu_77L15positionIsValidER14UTransPositioni.exit.thread

_ZN6icu_77L15positionIsValidER14UTransPositioni.exit.thread: ; preds = %3, %10, %14, %18, %22
  ret void
}